target datalayout = "e-m:e-p270:32:32-p271:32:32-p272:64:64-i64:64-i128:128-f80:128-n8:16:32:64-S128"
target triple = "x86_64-pc-linux-gnu"

%class.EmdL1 = type { i32, i32, i32, i32, i32, i32, %"class.std::vector", %"class.std::vector.3", %"class.std::vector.3", %"class.std::vector.8", %"class.std::vector.13", %"class.std::vector.13", %"class.std::vector.13", %"class.std::vector.18", %"class.std::vector.23", ptr, ptr, i32, ptr, i32, %"class.std::vector.18", %"class.std::vector.18", i32, i32 }
%"class.std::vector" = type { %"struct.std::_Vector_base" }
%"struct.std::_Vector_base" = type { %"struct.std::_Vector_base<std::vector<cvEMDNode>, std::allocator<std::vector<cvEMDNode>>>::_Vector_impl" }
%"struct.std::_Vector_base<std::vector<cvEMDNode>, std::allocator<std::vector<cvEMDNode>>>::_Vector_impl" = type { %"struct.std::_Vector_base<std::vector<cvEMDNode>, std::allocator<std::vector<cvEMDNode>>>::_Vector_impl_data" }
%"struct.std::_Vector_base<std::vector<cvEMDNode>, std::allocator<std::vector<cvEMDNode>>>::_Vector_impl_data" = type { ptr, ptr, ptr }
%"class.std::vector.3" = type { %"struct.std::_Vector_base.4" }
%"struct.std::_Vector_base.4" = type { %"struct.std::_Vector_base<std::vector<cvEMDEdge>, std::allocator<std::vector<cvEMDEdge>>>::_Vector_impl" }
%"struct.std::_Vector_base<std::vector<cvEMDEdge>, std::allocator<std::vector<cvEMDEdge>>>::_Vector_impl" = type { %"struct.std::_Vector_base<std::vector<cvEMDEdge>, std::allocator<std::vector<cvEMDEdge>>>::_Vector_impl_data" }
%"struct.std::_Vector_base<std::vector<cvEMDEdge>, std::allocator<std::vector<cvEMDEdge>>>::_Vector_impl_data" = type { ptr, ptr, ptr }
%"class.std::vector.8" = type { %"struct.std::_Vector_base.9" }
%"struct.std::_Vector_base.9" = type { %"struct.std::_Vector_base<std::vector<std::vector<cvEMDNode>>, std::allocator<std::vector<std::vector<cvEMDNode>>>>::_Vector_impl" }
%"struct.std::_Vector_base<std::vector<std::vector<cvEMDNode>>, std::allocator<std::vector<std::vector<cvEMDNode>>>>::_Vector_impl" = type { %"struct.std::_Vector_base<std::vector<std::vector<cvEMDNode>>, std::allocator<std::vector<std::vector<cvEMDNode>>>>::_Vector_impl_data" }
%"struct.std::_Vector_base<std::vector<std::vector<cvEMDNode>>, std::allocator<std::vector<std::vector<cvEMDNode>>>>::_Vector_impl_data" = type { ptr, ptr, ptr }
%"class.std::vector.13" = type { %"struct.std::_Vector_base.14" }
%"struct.std::_Vector_base.14" = type { %"struct.std::_Vector_base<std::vector<std::vector<cvEMDEdge>>, std::allocator<std::vector<std::vector<cvEMDEdge>>>>::_Vector_impl" }
%"struct.std::_Vector_base<std::vector<std::vector<cvEMDEdge>>, std::allocator<std::vector<std::vector<cvEMDEdge>>>>::_Vector_impl" = type { %"struct.std::_Vector_base<std::vector<std::vector<cvEMDEdge>>, std::allocator<std::vector<std::vector<cvEMDEdge>>>>::_Vector_impl_data" }
%"struct.std::_Vector_base<std::vector<std::vector<cvEMDEdge>>, std::allocator<std::vector<std::vector<cvEMDEdge>>>>::_Vector_impl_data" = type { ptr, ptr, ptr }
%"class.std::vector.23" = type { %"struct.std::_Vector_base.24" }
%"struct.std::_Vector_base.24" = type { %"struct.std::_Vector_base<cvEMDNode *, std::allocator<cvEMDNode *>>::_Vector_impl" }
%"struct.std::_Vector_base<cvEMDNode *, std::allocator<cvEMDNode *>>::_Vector_impl" = type { %"struct.std::_Vector_base<cvEMDNode *, std::allocator<cvEMDNode *>>::_Vector_impl_data" }
%"struct.std::_Vector_base<cvEMDNode *, std::allocator<cvEMDNode *>>::_Vector_impl_data" = type { ptr, ptr, ptr }
%"class.std::vector.18" = type { %"struct.std::_Vector_base.19" }
%"struct.std::_Vector_base.19" = type { %"struct.std::_Vector_base<cvEMDEdge *, std::allocator<cvEMDEdge *>>::_Vector_impl" }
%"struct.std::_Vector_base<cvEMDEdge *, std::allocator<cvEMDEdge *>>::_Vector_impl" = type { %"struct.std::_Vector_base<cvEMDEdge *, std::allocator<cvEMDEdge *>>::_Vector_impl_data" }
%"struct.std::_Vector_base<cvEMDEdge *, std::allocator<cvEMDEdge *>>::_Vector_impl_data" = type { ptr, ptr, ptr }
%struct.cvEMDEdge = type { float, i32, ptr, ptr, ptr }
%struct.cvEMDNode = type { [3 x i32], float, i32, i32, ptr, ptr, ptr }

; Function Attrs: mustprogress nounwind uwtable
define linkonce_odr hidden noundef nonnull align 8 dereferenceable(8) ptr @_ZNSt6vectorIP9cvEMDNodeSaIS1_EEixEm(ptr noundef nonnull align 8 dereferenceable(24) %0, i64 noundef %1) #7 comdat align 2 {
  %3 = alloca ptr, align 8
  %4 = alloca i64, align 8
  store ptr %0, ptr %3, align 8, !tbaa !137
  store i64 %1, ptr %4, align 8, !tbaa !87
  %5 = load ptr, ptr %3, align 8
  %6 = getelementptr inbounds nuw %"struct.std::_Vector_base.24", ptr %5, i32 0, i32 0
  %7 = getelementptr inbounds nuw %"struct.std::_Vector_base<cvEMDNode *, std::allocator<cvEMDNode *>>::_Vector_impl_data", ptr %6, i32 0, i32 0
  %8 = load ptr, ptr %7, align 8, !tbaa !139
  %9 = load i64, ptr %4, align 8, !tbaa !87
  %10 = getelementptr inbounds nuw ptr, ptr %8, i64 %9
  ret ptr %10
}

; Function Attrs: mustprogress nounwind uwtable
define hidden void @_ZN5EmdL113updateSubtreeEP9cvEMDNode(ptr noundef nonnull align 8 dereferenceable(336) %0, ptr noundef %1) #7 align 2 {
  %3 = alloca ptr, align 8
  %4 = alloca ptr, align 8
  %5 = alloca i32, align 4
  %6 = alloca i32, align 4
  %7 = alloca ptr, align 8
  %8 = alloca ptr, align 8
  %9 = alloca ptr, align 8
  store ptr %0, ptr %3, align 8, !tbaa !3
  store ptr %1, ptr %4, align 8, !tbaa !105
  %10 = load ptr, ptr %3, align 8
  %11 = load ptr, ptr %4, align 8, !tbaa !105
  %12 = getelementptr inbounds nuw %class.EmdL1, ptr %10, i32 0, i32 14
  %13 = call noundef nonnull align 8 dereferenceable(8) ptr @_ZNSt6vectorIP9cvEMDNodeSaIS1_EEixEm(ptr noundef nonnull align 8 dereferenceable(24) %12, i64 noundef 0) #3
  store ptr %11, ptr %13, align 8, !tbaa !105
  call void @llvm.lifetime.start.p0(i64 4, ptr %5) #3
  store i32 1, ptr %5, align 4, !tbaa !23
  call void @llvm.lifetime.start.p0(i64 4, ptr %6) #3
  store i32 0, ptr %6, align 4, !tbaa !23
  call void @llvm.lifetime.start.p0(i64 8, ptr %7) #3
  store ptr null, ptr %7, align 8, !tbaa !105
  call void @llvm.lifetime.start.p0(i64 8, ptr %8) #3
  store ptr null, ptr %8, align 8, !tbaa !105
  call void @llvm.lifetime.start.p0(i64 8, ptr %9) #3
  store ptr null, ptr %9, align 8, !tbaa !106
  br label %14

14:                                               ; preds = %68, %2
  %15 = load i32, ptr %6, align 4, !tbaa !23
  %16 = load i32, ptr %5, align 4, !tbaa !23
  %17 = icmp slt i32 %15, %16
  br i1 %17, label %18, label %69

18:                                               ; preds = %14
  %19 = getelementptr inbounds nuw %class.EmdL1, ptr %10, i32 0, i32 14
  %20 = load i32, ptr %6, align 4, !tbaa !23
  %21 = add nsw i32 %20, 1
  store i32 %21, ptr %6, align 4, !tbaa !23
  %22 = sext i32 %20 to i64
  %23 = call noundef nonnull align 8 dereferenceable(8) ptr @_ZNSt6vectorIP9cvEMDNodeSaIS1_EEixEm(ptr noundef nonnull align 8 dereferenceable(24) %19, i64 noundef %22) #3
  %24 = load ptr, ptr %23, align 8, !tbaa !105
  store ptr %24, ptr %7, align 8, !tbaa !105
  %25 = load ptr, ptr %7, align 8, !tbaa !105
  %26 = getelementptr inbounds nuw %struct.cvEMDNode, ptr %25, i32 0, i32 5
  %27 = load ptr, ptr %26, align 8, !tbaa !92
  store ptr %27, ptr %9, align 8, !tbaa !106
  br label %28

28:                                               ; preds = %55, %18
  %29 = load ptr, ptr %9, align 8, !tbaa !106
  %30 = icmp ne ptr %29, null
  br i1 %30, label %31, label %68

31:                                               ; preds = %28
  %32 = load ptr, ptr %9, align 8, !tbaa !106
  %33 = getelementptr inbounds nuw %struct.cvEMDEdge, ptr %32, i32 0, i32 3
  %34 = load ptr, ptr %33, align 8, !tbaa !70
  store ptr %34, ptr %8, align 8, !tbaa !105
  %35 = load ptr, ptr %7, align 8, !tbaa !105
  %36 = getelementptr inbounds nuw %struct.cvEMDNode, ptr %35, i32 0, i32 3
  %37 = load i32, ptr %36, align 4, !tbaa !93
  %38 = add nsw i32 %37, 1
  %39 = load ptr, ptr %8, align 8, !tbaa !105
  %40 = getelementptr inbounds nuw %struct.cvEMDNode, ptr %39, i32 0, i32 3
  store i32 %38, ptr %40, align 4, !tbaa !93
  %41 = load ptr, ptr %9, align 8, !tbaa !106
  %42 = getelementptr inbounds nuw %struct.cvEMDEdge, ptr %41, i32 0, i32 1
  %43 = load i32, ptr %42, align 4, !tbaa !96
  %44 = icmp ne i32 %43, 0
  br i1 %44, label %45, label %50

45:                                               ; preds = %31
  %46 = load ptr, ptr %7, align 8, !tbaa !105
  %47 = getelementptr inbounds nuw %struct.cvEMDNode, ptr %46, i32 0, i32 2
  %48 = load i32, ptr %47, align 8, !tbaa !103
  %49 = sub nsw i32 %48, 1
  br label %55

50:                                               ; preds = %31
  %51 = load ptr, ptr %7, align 8, !tbaa !105
  %52 = getelementptr inbounds nuw %struct.cvEMDNode, ptr %51, i32 0, i32 2
  %53 = load i32, ptr %52, align 8, !tbaa !103
  %54 = add nsw i32 %53, 1
  br label %55

55:                                               ; preds = %50, %45
  %56 = phi i32 [ %49, %45 ], [ %54, %50 ]
  %57 = load ptr, ptr %8, align 8, !tbaa !105
  %58 = getelementptr inbounds nuw %struct.cvEMDNode, ptr %57, i32 0, i32 2
  store i32 %56, ptr %58, align 8, !tbaa !103
  %59 = load ptr, ptr %9, align 8, !tbaa !106
  %60 = getelementptr inbounds nuw %struct.cvEMDEdge, ptr %59, i32 0, i32 4
  %61 = load ptr, ptr %60, align 8, !tbaa !97
  store ptr %61, ptr %9, align 8, !tbaa !106
  %62 = load ptr, ptr %8, align 8, !tbaa !105
  %63 = getelementptr inbounds nuw %class.EmdL1, ptr %10, i32 0, i32 14
  %64 = load i32, ptr %5, align 4, !tbaa !23
  %65 = add nsw i32 %64, 1
  store i32 %65, ptr %5, align 4, !tbaa !23
  %66 = sext i32 %64 to i64
  %67 = call noundef nonnull align 8 dereferenceable(8) ptr @_ZNSt6vectorIP9cvEMDNodeSaIS1_EEixEm(ptr noundef nonnull align 8 dereferenceable(24) %63, i64 noundef %66) #3
  store ptr %62, ptr %67, align 8, !tbaa !105
  br label %28, !llvm.loop !109

68:                                               ; preds = %28
  br label %14, !llvm.loop !110

69:                                               ; preds = %14
  call void @llvm.lifetime.end.p0(i64 8, ptr %9) #3
  call void @llvm.lifetime.end.p0(i64 8, ptr %8) #3
  call void @llvm.lifetime.end.p0(i64 8, ptr %7) #3
  call void @llvm.lifetime.end.p0(i64 4, ptr %6) #3
  call void @llvm.lifetime.end.p0(i64 4, ptr %5) #3
  ret void
}