; Function Attrs: mustprogress nofree norecurse nosync nounwind memory(readwrite, inaccessiblemem: none) uwtable
define hidden void @_ZN5EmdL113updateSubtreeEP9cvEMDNode(ptr noundef nonnull readonly align 8 captures(none) dereferenceable(336) %0, ptr noundef %1) local_unnamed_addr #7 align 2 {
  %3 = getelementptr inbounds nuw i8, ptr %0, i64 216
  %4 = load ptr, ptr %3, align 8, !tbaa !67
  store ptr %1, ptr %4, align 8, !tbaa !68
  br label %8

.loopexit.loopexit:                               ; preds = %16
  %5 = trunc nsw i64 %indvars.iv.next to i32
  br label %.loopexit

.loopexit:                                        ; preds = %.loopexit.loopexit, %8
  %.1.lcssa = phi i32 [ %.01722, %8 ], [ %5, %.loopexit.loopexit ]
  %6 = sext i32 %.1.lcssa to i64
  %7 = icmp slt i64 %indvars.iv.next26, %6
  br i1 %7, label %8, label %30, !llvm.loop !69

8:                                                ; preds = %2, %.loopexit
  %indvars.iv25 = phi i64 [ 0, %2 ], [ %indvars.iv.next26, %.loopexit ]
  %.01722 = phi i32 [ 1, %2 ], [ %.1.lcssa, %.loopexit ]
  %indvars.iv.next26 = add nuw nsw i64 %indvars.iv25, 1
  %9 = getelementptr inbounds nuw ptr, ptr %4, i64 %indvars.iv25
  %10 = load ptr, ptr %9, align 8, !tbaa !68
  %11 = getelementptr inbounds nuw i8, ptr %10, i64 32
  %12 = load ptr, ptr %11, align 8, !tbaa !70
  %.not19 = icmp eq ptr %12, null
  br i1 %.not19, label %.loopexit, label %.lr.ph

.lr.ph:                                           ; preds = %8
  %13 = getelementptr inbounds nuw i8, ptr %10, i64 20
  %14 = getelementptr inbounds nuw i8, ptr %10, i64 16
  %15 = sext i32 %.01722 to i64
  br label %16

16:                                               ; preds = %.lr.ph, %16
  %indvars.iv = phi i64 [ %15, %.lr.ph ], [ %indvars.iv.next, %16 ]
  %.021 = phi ptr [ %12, %.lr.ph ], [ %28, %16 ]
  %17 = getelementptr inbounds nuw i8, ptr %.021, i64 16
  %18 = load ptr, ptr %17, align 8, !tbaa !72
  %19 = load i32, ptr %13, align 4, !tbaa !74
  %20 = add nsw i32 %19, 1
  %21 = getelementptr inbounds nuw i8, ptr %18, i64 20
  store i32 %20, ptr %21, align 4, !tbaa !74
  %22 = getelementptr inbounds nuw i8, ptr %.021, i64 4
  %23 = load i32, ptr %22, align 4, !tbaa !75
  %.not18 = icmp eq i32 %23, 0
  %24 = load i32, ptr %14, align 8, !tbaa !76
  %. = select i1 %.not18, i32 1, i32 -1
  %25 = add nsw i32 %24, %.
  %26 = getelementptr inbounds nuw i8, ptr %18, i64 16
  store i32 %25, ptr %26, align 8, !tbaa !76
  %27 = getelementptr inbounds nuw i8, ptr %.021, i64 24
  %28 = load ptr, ptr %27, align 8, !tbaa !77
  %indvars.iv.next = add nsw i64 %indvars.iv, 1
  %29 = getelementptr inbounds nuw ptr, ptr %4, i64 %indvars.iv
  store ptr %18, ptr %29, align 8, !tbaa !68
  %.not = icmp eq ptr %28, null
  br i1 %.not, label %.loopexit.loopexit, label %16, !llvm.loop !78

30:                                               ; preds = %.loopexit
  ret void
}